; Function Attrs: nounwind uwtable
define noalias ptr @l_Array_mapFinIdxM_map___at___private_Lean_Elab_LetRec_0__Lean_Elab_Term_registerLetRecsToLift___spec__2___boxed(ptr noundef readonly captures(none) %0) local_unnamed_addr #0 {
  %2 = load ptr, ptr %0, align 8, !tbaa !10
  %3 = getelementptr inbounds nuw i8, ptr %0, i64 8
  %4 = load ptr, ptr %3, align 8, !tbaa !10
  %5 = getelementptr inbounds nuw i8, ptr %0, i64 16
  %6 = load ptr, ptr %5, align 8, !tbaa !10
  %7 = getelementptr inbounds nuw i8, ptr %0, i64 24
  %8 = load ptr, ptr %7, align 8, !tbaa !10
  %9 = getelementptr inbounds nuw i8, ptr %0, i64 32
  %10 = load ptr, ptr %9, align 8, !tbaa !10
  %11 = getelementptr inbounds nuw i8, ptr %0, i64 40
  %12 = load ptr, ptr %11, align 8, !tbaa !10
  %13 = getelementptr inbounds nuw i8, ptr %0, i64 48
  %14 = load ptr, ptr %13, align 8, !tbaa !10
  %15 = getelementptr inbounds nuw i8, ptr %0, i64 56
  %16 = load ptr, ptr %15, align 8, !tbaa !10
  %17 = getelementptr inbounds nuw i8, ptr %0, i64 72
  %18 = load ptr, ptr %17, align 8, !tbaa !10
  %19 = getelementptr inbounds nuw i8, ptr %0, i64 80
  %20 = load ptr, ptr %19, align 8, !tbaa !10
  %21 = getelementptr inbounds nuw i8, ptr %0, i64 88
  %22 = load ptr, ptr %21, align 8, !tbaa !10
  %23 = getelementptr inbounds nuw i8, ptr %0, i64 96
  %24 = load ptr, ptr %23, align 8, !tbaa !10
  %25 = getelementptr inbounds nuw i8, ptr %0, i64 104
  %26 = load ptr, ptr %25, align 8, !tbaa !10
  %27 = getelementptr inbounds nuw i8, ptr %0, i64 112
  %28 = load ptr, ptr %27, align 8, !tbaa !10
  %29 = getelementptr inbounds nuw i8, ptr %0, i64 120
  %30 = load ptr, ptr %29, align 8, !tbaa !10
  %31 = getelementptr inbounds nuw i8, ptr %0, i64 128
  %32 = load ptr, ptr %31, align 8, !tbaa !10
  %33 = tail call ptr @l_Array_mapFinIdxM_map___at___private_Lean_Elab_LetRec_0__Lean_Elab_Term_registerLetRecsToLift___spec__2(ptr poison, ptr noundef %4, ptr noundef %6, ptr noundef %8, ptr noundef %10, ptr noundef %12, ptr noundef %14, ptr noundef %16, ptr poison, ptr noundef %18, ptr poison, ptr poison, ptr poison, ptr poison, ptr poison, ptr poison, ptr noundef %32)
  %34 = ptrtoint ptr %30 to i64
  %35 = and i64 %34, 1
  %.not = icmp eq i64 %35, 0
  br i1 %.not, label %36, label %lean_dec.exit53

36:                                               ; preds = %1
  %37 = load i32, ptr %30, align 4, !tbaa !4
  %38 = icmp sgt i32 %37, 1
  br i1 %38, label %39, label %41, !prof !9

39:                                               ; preds = %36
  %40 = add nsw i32 %37, -1
  store i32 %40, ptr %30, align 4, !tbaa !4
  br label %lean_dec.exit53

41:                                               ; preds = %36
  %.not.i = icmp eq i32 %37, 0
  br i1 %.not.i, label %lean_dec.exit53, label %42

42:                                               ; preds = %41
  tail call void @lean_dec_ref_cold(ptr noundef nonnull %30) #5
  br label %lean_dec.exit53

lean_dec.exit53:                                  ; preds = %42, %41, %39, %1
  %43 = ptrtoint ptr %28 to i64
  %44 = and i64 %43, 1
  %.not72 = icmp eq i64 %44, 0
  br i1 %.not72, label %45, label %lean_dec.exit52

45:                                               ; preds = %lean_dec.exit53
  %46 = load i32, ptr %28, align 4, !tbaa !4
  %47 = icmp sgt i32 %46, 1
  br i1 %47, label %48, label %50, !prof !9

48:                                               ; preds = %45
  %49 = add nsw i32 %46, -1
  store i32 %49, ptr %28, align 4, !tbaa !4
  br label %lean_dec.exit52

50:                                               ; preds = %45
  %.not.i54 = icmp eq i32 %46, 0
  br i1 %.not.i54, label %lean_dec.exit52, label %51

51:                                               ; preds = %50
  tail call void @lean_dec_ref_cold(ptr noundef nonnull %28) #5
  br label %lean_dec.exit52

lean_dec.exit52:                                  ; preds = %51, %50, %48, %lean_dec.exit53
  %52 = ptrtoint ptr %26 to i64
  %53 = and i64 %52, 1
  %.not73 = icmp eq i64 %53, 0
  br i1 %.not73, label %54, label %lean_dec.exit51

54:                                               ; preds = %lean_dec.exit52
  %55 = load i32, ptr %26, align 4, !tbaa !4
  %56 = icmp sgt i32 %55, 1
  br i1 %56, label %57, label %59, !prof !9

57:                                               ; preds = %54
  %58 = add nsw i32 %55, -1
  store i32 %58, ptr %26, align 4, !tbaa !4
  br label %lean_dec.exit51

59:                                               ; preds = %54
  %.not.i56 = icmp eq i32 %55, 0
  br i1 %.not.i56, label %lean_dec.exit51, label %60

60:                                               ; preds = %59
  tail call void @lean_dec_ref_cold(ptr noundef nonnull %26) #5
  br label %lean_dec.exit51

lean_dec.exit51:                                  ; preds = %60, %59, %57, %lean_dec.exit52
  %61 = ptrtoint ptr %24 to i64
  %62 = and i64 %61, 1
  %.not74 = icmp eq i64 %62, 0
  br i1 %.not74, label %63, label %lean_dec.exit50

63:                                               ; preds = %lean_dec.exit51
  %64 = load i32, ptr %24, align 4, !tbaa !4
  %65 = icmp sgt i32 %64, 1
  br i1 %65, label %66, label %68, !prof !9

66:                                               ; preds = %63
  %67 = add nsw i32 %64, -1
  store i32 %67, ptr %24, align 4, !tbaa !4
  br label %lean_dec.exit50

68:                                               ; preds = %63
  %.not.i58 = icmp eq i32 %64, 0
  br i1 %.not.i58, label %lean_dec.exit50, label %69

69:                                               ; preds = %68
  tail call void @lean_dec_ref_cold(ptr noundef nonnull %24) #5
  br label %lean_dec.exit50

lean_dec.exit50:                                  ; preds = %69, %68, %66, %lean_dec.exit51
  %70 = ptrtoint ptr %22 to i64
  %71 = and i64 %70, 1
  %.not75 = icmp eq i64 %71, 0
  br i1 %.not75, label %72, label %lean_dec.exit49

72:                                               ; preds = %lean_dec.exit50
  %73 = load i32, ptr %22, align 4, !tbaa !4
  %74 = icmp sgt i32 %73, 1
  br i1 %74, label %75, label %77, !prof !9

75:                                               ; preds = %72
  %76 = add nsw i32 %73, -1
  store i32 %76, ptr %22, align 4, !tbaa !4
  br label %lean_dec.exit49

77:                                               ; preds = %72
  %.not.i60 = icmp eq i32 %73, 0
  br i1 %.not.i60, label %lean_dec.exit49, label %78

78:                                               ; preds = %77
  tail call void @lean_dec_ref_cold(ptr noundef nonnull %22) #5
  br label %lean_dec.exit49

lean_dec.exit49:                                  ; preds = %78, %77, %75, %lean_dec.exit50
  %79 = ptrtoint ptr %20 to i64
  %80 = and i64 %79, 1
  %.not76 = icmp eq i64 %80, 0
  br i1 %.not76, label %81, label %lean_dec.exit48

81:                                               ; preds = %lean_dec.exit49
  %82 = load i32, ptr %20, align 4, !tbaa !4
  %83 = icmp sgt i32 %82, 1
  br i1 %83, label %84, label %86, !prof !9

84:                                               ; preds = %81
  %85 = add nsw i32 %82, -1
  store i32 %85, ptr %20, align 4, !tbaa !4
  br label %lean_dec.exit48

86:                                               ; preds = %81
  %.not.i62 = icmp eq i32 %82, 0
  br i1 %.not.i62, label %lean_dec.exit48, label %87

87:                                               ; preds = %86
  tail call void @lean_dec_ref_cold(ptr noundef nonnull %20) #5
  br label %lean_dec.exit48

lean_dec.exit48:                                  ; preds = %87, %86, %84, %lean_dec.exit49
  %88 = ptrtoint ptr %12 to i64
  %89 = and i64 %88, 1
  %.not77 = icmp eq i64 %89, 0
  br i1 %.not77, label %90, label %lean_dec.exit47

90:                                               ; preds = %lean_dec.exit48
  %91 = load i32, ptr %12, align 4, !tbaa !4
  %92 = icmp sgt i32 %91, 1
  br i1 %92, label %93, label %95, !prof !9

93:                                               ; preds = %90
  %94 = add nsw i32 %91, -1
  store i32 %94, ptr %12, align 4, !tbaa !4
  br label %lean_dec.exit47

95:                                               ; preds = %90
  %.not.i64 = icmp eq i32 %91, 0
  br i1 %.not.i64, label %lean_dec.exit47, label %96

96:                                               ; preds = %95
  tail call void @lean_dec_ref_cold(ptr noundef nonnull %12) #5
  br label %lean_dec.exit47

lean_dec.exit47:                                  ; preds = %96, %95, %93, %lean_dec.exit48
  %97 = ptrtoint ptr %6 to i64
  %98 = and i64 %97, 1
  %.not78 = icmp eq i64 %98, 0
  br i1 %.not78, label %99, label %lean_dec.exit46

99:                                               ; preds = %lean_dec.exit47
  %100 = load i32, ptr %6, align 4, !tbaa !4
  %101 = icmp sgt i32 %100, 1
  br i1 %101, label %102, label %104, !prof !9

102:                                              ; preds = %99
  %103 = add nsw i32 %100, -1
  store i32 %103, ptr %6, align 4, !tbaa !4
  br label %lean_dec.exit46

104:                                              ; preds = %99
  %.not.i66 = icmp eq i32 %100, 0
  br i1 %.not.i66, label %lean_dec.exit46, label %105

105:                                              ; preds = %104
  tail call void @lean_dec_ref_cold(ptr noundef nonnull %6) #5
  br label %lean_dec.exit46

lean_dec.exit46:                                  ; preds = %105, %104, %102, %lean_dec.exit47
  %106 = ptrtoint ptr %4 to i64
  %107 = and i64 %106, 1
  %.not79 = icmp eq i64 %107, 0
  br i1 %.not79, label %108, label %lean_dec.exit45

108:                                              ; preds = %lean_dec.exit46
  %109 = load i32, ptr %4, align 4, !tbaa !4
  %110 = icmp sgt i32 %109, 1
  br i1 %110, label %111, label %113, !prof !9

111:                                              ; preds = %108
  %112 = add nsw i32 %109, -1
  store i32 %112, ptr %4, align 4, !tbaa !4
  br label %lean_dec.exit45

113:                                              ; preds = %108
  %.not.i68 = icmp eq i32 %109, 0
  br i1 %.not.i68, label %lean_dec.exit45, label %114

114:                                              ; preds = %113
  tail call void @lean_dec_ref_cold(ptr noundef nonnull %4) #5
  br label %lean_dec.exit45

lean_dec.exit45:                                  ; preds = %114, %113, %111, %lean_dec.exit46
  %115 = ptrtoint ptr %2 to i64
  %116 = and i64 %115, 1
  %.not80 = icmp eq i64 %116, 0
  br i1 %.not80, label %117, label %lean_dec.exit

117:                                              ; preds = %lean_dec.exit45
  %118 = load i32, ptr %2, align 4, !tbaa !4
  %119 = icmp sgt i32 %118, 1
  br i1 %119, label %120, label %122, !prof !9

120:                                              ; preds = %117
  %121 = add nsw i32 %118, -1
  store i32 %121, ptr %2, align 4, !tbaa !4
  br label %lean_dec.exit

122:                                              ; preds = %117
  %.not.i70 = icmp eq i32 %118, 0
  br i1 %.not.i70, label %lean_dec.exit, label %123

123:                                              ; preds = %122
  tail call void @lean_dec_ref_cold(ptr noundef nonnull %2) #5
  br label %lean_dec.exit

lean_dec.exit:                                    ; preds = %123, %122, %120, %lean_dec.exit45
  ret ptr %33
}